target datalayout = "e-m:e-p270:32:32-p271:32:32-p272:64:64-i64:64-i128:128-f80:128-n8:16:32:64-S128"
target triple = "x86_64-pc-linux-gnu"

%struct.FunctionCallInfoBaseData = type { ptr, ptr, ptr, i32, i8, i16, [0 x %struct.NullableDatum] }
%struct.NullableDatum = type { i64, i8 }
%struct.pg_re_flags = type { i32, i8 }

@.str.3 = private unnamed_addr constant [9 x i8] c"regexp.c\00", align 1
@.str.6 = private unnamed_addr constant [37 x i8] c"invalid value for parameter \22%s\22: %d\00", align 1
@.str.7 = private unnamed_addr constant [6 x i8] c"start\00", align 1
@__func__.textregexreplace_extended = private unnamed_addr constant [26 x i8] c"textregexreplace_extended\00", align 1
@.str.8 = private unnamed_addr constant [2 x i8] c"n\00", align 1

; Function Attrs: inlinehint nounwind uwtable
define internal i64 @PointerGetDatum(ptr noundef %0) #6 {
  %2 = alloca ptr, align 8
  store ptr %0, ptr %2, align 8
  %3 = load ptr, ptr %2, align 8
  %4 = ptrtoint ptr %3 to i64
  ret i64 %4
}

; Function Attrs: inlinehint nounwind uwtable
define internal i32 @DatumGetInt32(i64 noundef %0) #6 {
  %2 = alloca i64, align 8
  store i64 %0, ptr %2, align 8
  %3 = load i64, ptr %2, align 8
  %4 = trunc i64 %3 to i32
  ret i32 %4
}

; Function Attrs: inlinehint nounwind uwtable
define internal ptr @DatumGetPointer(i64 noundef %0) #6 {
  %2 = alloca i64, align 8
  store i64 %0, ptr %2, align 8
  %3 = load i64, ptr %2, align 8
  %4 = inttoptr i64 %3 to ptr
  ret ptr %4
}

; Function Attrs: nounwind uwtable
define dso_local i64 @textregexreplace_extended(ptr noundef %0) #0 {
  %2 = alloca ptr, align 8
  %3 = alloca ptr, align 8
  %4 = alloca ptr, align 8
  %5 = alloca ptr, align 8
  %6 = alloca i32, align 4
  %7 = alloca i32, align 4
  %8 = alloca ptr, align 8
  %9 = alloca %struct.pg_re_flags, align 4
  store ptr %0, ptr %2, align 8
  call void @llvm.lifetime.start.p0(i64 8, ptr %3) #8
  %10 = load ptr, ptr %2, align 8
  %11 = getelementptr inbounds nuw %struct.FunctionCallInfoBaseData, ptr %10, i32 0, i32 6
  %12 = getelementptr inbounds [0 x %struct.NullableDatum], ptr %11, i64 0, i64 0
  %13 = getelementptr inbounds nuw %struct.NullableDatum, ptr %12, i32 0, i32 0
  %14 = load i64, ptr %13, align 8
  %15 = call ptr @DatumGetPointer(i64 noundef %14)
  %16 = call ptr @pg_detoast_datum_packed(ptr noundef %15)
  store ptr %16, ptr %3, align 8
  call void @llvm.lifetime.start.p0(i64 8, ptr %4) #8
  %17 = load ptr, ptr %2, align 8
  %18 = getelementptr inbounds nuw %struct.FunctionCallInfoBaseData, ptr %17, i32 0, i32 6
  %19 = getelementptr inbounds [0 x %struct.NullableDatum], ptr %18, i64 0, i64 1
  %20 = getelementptr inbounds nuw %struct.NullableDatum, ptr %19, i32 0, i32 0
  %21 = load i64, ptr %20, align 8
  %22 = call ptr @DatumGetPointer(i64 noundef %21)
  %23 = call ptr @pg_detoast_datum_packed(ptr noundef %22)
  store ptr %23, ptr %4, align 8
  call void @llvm.lifetime.start.p0(i64 8, ptr %5) #8
  %24 = load ptr, ptr %2, align 8
  %25 = getelementptr inbounds nuw %struct.FunctionCallInfoBaseData, ptr %24, i32 0, i32 6
  %26 = getelementptr inbounds [0 x %struct.NullableDatum], ptr %25, i64 0, i64 2
  %27 = getelementptr inbounds nuw %struct.NullableDatum, ptr %26, i32 0, i32 0
  %28 = load i64, ptr %27, align 8
  %29 = call ptr @DatumGetPointer(i64 noundef %28)
  %30 = call ptr @pg_detoast_datum_packed(ptr noundef %29)
  store ptr %30, ptr %5, align 8
  call void @llvm.lifetime.start.p0(i64 4, ptr %6) #8
  store i32 1, ptr %6, align 4
  call void @llvm.lifetime.start.p0(i64 4, ptr %7) #8
  store i32 1, ptr %7, align 4
  call void @llvm.lifetime.start.p0(i64 8, ptr %8) #8
  %31 = load ptr, ptr %2, align 8
  %32 = getelementptr inbounds nuw %struct.FunctionCallInfoBaseData, ptr %31, i32 0, i32 5
  %33 = load i16, ptr %32, align 2
  %34 = sext i16 %33 to i32
  %35 = icmp sgt i32 %34, 5
  br i1 %35, label %36, label %44

36:                                               ; preds = %1
  %37 = load ptr, ptr %2, align 8
  %38 = getelementptr inbounds nuw %struct.FunctionCallInfoBaseData, ptr %37, i32 0, i32 6
  %39 = getelementptr inbounds [0 x %struct.NullableDatum], ptr %38, i64 0, i64 5
  %40 = getelementptr inbounds nuw %struct.NullableDatum, ptr %39, i32 0, i32 0
  %41 = load i64, ptr %40, align 8
  %42 = call ptr @DatumGetPointer(i64 noundef %41)
  %43 = call ptr @pg_detoast_datum_packed(ptr noundef %42)
  br label %45

44:                                               ; preds = %1
  br label %45

45:                                               ; preds = %44, %36
  %46 = phi ptr [ %43, %36 ], [ null, %44 ]
  store ptr %46, ptr %8, align 8
  call void @llvm.lifetime.start.p0(i64 8, ptr %9) #8
  %47 = load ptr, ptr %2, align 8
  %48 = getelementptr inbounds nuw %struct.FunctionCallInfoBaseData, ptr %47, i32 0, i32 5
  %49 = load i16, ptr %48, align 2
  %50 = sext i16 %49 to i32
  %51 = icmp sgt i32 %50, 3
  br i1 %51, label %52, label %75

52:                                               ; preds = %45
  %53 = load ptr, ptr %2, align 8
  %54 = getelementptr inbounds nuw %struct.FunctionCallInfoBaseData, ptr %53, i32 0, i32 6
  %55 = getelementptr inbounds [0 x %struct.NullableDatum], ptr %54, i64 0, i64 3
  %56 = getelementptr inbounds nuw %struct.NullableDatum, ptr %55, i32 0, i32 0
  %57 = load i64, ptr %56, align 8
  %58 = call i32 @DatumGetInt32(i64 noundef %57)
  store i32 %58, ptr %6, align 4
  %59 = load i32, ptr %6, align 4
  %60 = icmp sle i32 %59, 0
  br i1 %60, label %61, label %74

61:                                               ; preds = %52
  br label %62

62:                                               ; preds = %61
  br i1 true, label %63, label %65

63:                                               ; preds = %62
  %64 = call zeroext i1 @errstart_cold(i32 noundef 21, ptr noundef null) #10
  br i1 %64, label %67, label %71

65:                                               ; preds = %62
  %66 = call zeroext i1 @errstart(i32 noundef 21, ptr noundef null)
  br i1 %66, label %67, label %71

67:                                               ; preds = %65, %63
  %68 = call i32 @errcode(i32 noundef 50856066)
  %69 = load i32, ptr %6, align 4
  %70 = call i32 (ptr, ...) @errmsg(ptr noundef @.str.6, ptr noundef @.str.7, i32 noundef %69)
  call void @errfinish(ptr noundef @.str.3, i32 noundef 717, ptr noundef @__func__.textregexreplace_extended)
  br label %71

71:                                               ; preds = %67, %65, %63
  unreachable

72:                                               ; No predecessors!
  br label %73

73:                                               ; preds = %72
  br label %74

74:                                               ; preds = %73, %52
  br label %75

75:                                               ; preds = %74, %45
  %76 = load ptr, ptr %2, align 8
  %77 = getelementptr inbounds nuw %struct.FunctionCallInfoBaseData, ptr %76, i32 0, i32 5
  %78 = load i16, ptr %77, align 2
  %79 = sext i16 %78 to i32
  %80 = icmp sgt i32 %79, 4
  br i1 %80, label %81, label %104

81:                                               ; preds = %75
  %82 = load ptr, ptr %2, align 8
  %83 = getelementptr inbounds nuw %struct.FunctionCallInfoBaseData, ptr %82, i32 0, i32 6
  %84 = getelementptr inbounds [0 x %struct.NullableDatum], ptr %83, i64 0, i64 4
  %85 = getelementptr inbounds nuw %struct.NullableDatum, ptr %84, i32 0, i32 0
  %86 = load i64, ptr %85, align 8
  %87 = call i32 @DatumGetInt32(i64 noundef %86)
  store i32 %87, ptr %7, align 4
  %88 = load i32, ptr %7, align 4
  %89 = icmp slt i32 %88, 0
  br i1 %89, label %90, label %103

90:                                               ; preds = %81
  br label %91

91:                                               ; preds = %90
  br i1 true, label %92, label %94

92:                                               ; preds = %91
  %93 = call zeroext i1 @errstart_cold(i32 noundef 21, ptr noundef null) #10
  br i1 %93, label %96, label %100

94:                                               ; preds = %91
  %95 = call zeroext i1 @errstart(i32 noundef 21, ptr noundef null)
  br i1 %95, label %96, label %100

96:                                               ; preds = %94, %92
  %97 = call i32 @errcode(i32 noundef 50856066)
  %98 = load i32, ptr %7, align 4
  %99 = call i32 (ptr, ...) @errmsg(ptr noundef @.str.6, ptr noundef @.str.8, i32 noundef %98)
  call void @errfinish(ptr noundef @.str.3, i32 noundef 726, ptr noundef @__func__.textregexreplace_extended)
  br label %100

100:                                              ; preds = %96, %94, %92
  unreachable

101:                                              ; No predecessors!
  br label %102

102:                                              ; preds = %101
  br label %103

103:                                              ; preds = %102, %81
  br label %104

104:                                              ; preds = %103, %75
  %105 = load ptr, ptr %8, align 8
  call void @parse_re_flags(ptr noundef %9, ptr noundef %105)
  %106 = load ptr, ptr %2, align 8
  %107 = getelementptr inbounds nuw %struct.FunctionCallInfoBaseData, ptr %106, i32 0, i32 5
  %108 = load i16, ptr %107, align 2
  %109 = sext i16 %108 to i32
  %110 = icmp sle i32 %109, 4
  br i1 %110, label %111, label %116

111:                                              ; preds = %104
  %112 = getelementptr inbounds nuw %struct.pg_re_flags, ptr %9, i32 0, i32 1
  %113 = load i8, ptr %112, align 4, !range !6, !noundef !7
  %114 = trunc i8 %113 to i1
  %115 = select i1 %114, i32 0, i32 1
  store i32 %115, ptr %7, align 4
  br label %116

116:                                              ; preds = %111, %104
  %117 = load ptr, ptr %3, align 8
  %118 = load ptr, ptr %4, align 8
  %119 = load ptr, ptr %5, align 8
  %120 = getelementptr inbounds nuw %struct.pg_re_flags, ptr %9, i32 0, i32 0
  %121 = load i32, ptr %120, align 4
  %122 = load ptr, ptr %2, align 8
  %123 = getelementptr inbounds nuw %struct.FunctionCallInfoBaseData, ptr %122, i32 0, i32 3
  %124 = load i32, ptr %123, align 8
  %125 = load i32, ptr %6, align 4
  %126 = sub i32 %125, 1
  %127 = load i32, ptr %7, align 4
  %128 = call ptr @replace_text_regexp(ptr noundef %117, ptr noundef %118, ptr noundef %119, i32 noundef %121, i32 noundef %124, i32 noundef %126, i32 noundef %127)
  %129 = call i64 @PointerGetDatum(ptr noundef %128)
  call void @llvm.lifetime.end.p0(i64 8, ptr %9) #8
  call void @llvm.lifetime.end.p0(i64 8, ptr %8) #8
  call void @llvm.lifetime.end.p0(i64 4, ptr %7) #8
  call void @llvm.lifetime.end.p0(i64 4, ptr %6) #8
  call void @llvm.lifetime.end.p0(i64 8, ptr %5) #8
  call void @llvm.lifetime.end.p0(i64 8, ptr %4) #8
  call void @llvm.lifetime.end.p0(i64 8, ptr %3) #8
  ret i64 %129
}