; Function Attrs: nounwind uwtable
define dso_local i64 @textregexreplace_extended(ptr noundef readonly captures(none) %0) local_unnamed_addr #0 {
  %2 = alloca %struct.pg_re_flags, align 4
  %3 = getelementptr inbounds nuw i8, ptr %0, i64 32
  %4 = load i64, ptr %3, align 8
  %5 = inttoptr i64 %4 to ptr
  %6 = tail call ptr @pg_detoast_datum_packed(ptr noundef %5) #9
  %7 = getelementptr inbounds nuw i8, ptr %0, i64 48
  %8 = load i64, ptr %7, align 8
  %9 = inttoptr i64 %8 to ptr
  %10 = tail call ptr @pg_detoast_datum_packed(ptr noundef %9) #9
  %11 = getelementptr inbounds nuw i8, ptr %0, i64 64
  %12 = load i64, ptr %11, align 8
  %13 = inttoptr i64 %12 to ptr
  %14 = tail call ptr @pg_detoast_datum_packed(ptr noundef %13) #9
  %15 = getelementptr inbounds nuw i8, ptr %0, i64 30
  %16 = load i16, ptr %15, align 2
  %17 = icmp sgt i16 %16, 5
  br i1 %17, label %18, label %23

18:                                               ; preds = %1
  %19 = getelementptr inbounds nuw i8, ptr %0, i64 112
  %20 = load i64, ptr %19, align 8
  %21 = inttoptr i64 %20 to ptr
  %22 = tail call ptr @pg_detoast_datum_packed(ptr noundef %21) #9
  %.pr = load i16, ptr %15, align 2
  br label %23

23:                                               ; preds = %1, %18
  %24 = phi i16 [ %16, %1 ], [ %.pr, %18 ]
  %25 = phi ptr [ null, %1 ], [ %22, %18 ]
  call void @llvm.lifetime.start.p0(i64 8, ptr nonnull %2) #9
  %26 = icmp sgt i16 %24, 3
  br i1 %26, label %27, label %.thread

27:                                               ; preds = %23
  %28 = getelementptr inbounds nuw i8, ptr %0, i64 80
  %29 = load i64, ptr %28, align 8
  %30 = trunc i64 %29 to i32
  %31 = icmp slt i32 %30, 1
  br i1 %31, label %32, label %36

32:                                               ; preds = %27
  %33 = tail call zeroext i1 @errstart_cold(i32 noundef 21, ptr noundef null) #10
  tail call void @llvm.assume(i1 %33)
  %34 = tail call i32 @errcode(i32 noundef 50856066) #9
  %35 = tail call i32 (ptr, ...) @errmsg(ptr noundef nonnull @.str.6, ptr noundef nonnull @.str.7, i32 noundef %30) #9
  tail call void @errfinish(ptr noundef nonnull @.str.3, i32 noundef 717, ptr noundef nonnull @__func__.textregexreplace_extended) #9
  unreachable

36:                                               ; preds = %27
  %.not = icmp eq i16 %24, 4
  br i1 %.not, label %.thread, label %37

37:                                               ; preds = %36
  %38 = getelementptr inbounds nuw i8, ptr %0, i64 96
  %39 = load i64, ptr %38, align 8
  %40 = trunc i64 %39 to i32
  %41 = icmp slt i32 %40, 0
  br i1 %41, label %42, label %.thread

42:                                               ; preds = %37
  %43 = tail call zeroext i1 @errstart_cold(i32 noundef 21, ptr noundef null) #10
  tail call void @llvm.assume(i1 %43)
  %44 = tail call i32 @errcode(i32 noundef 50856066) #9
  %45 = tail call i32 (ptr, ...) @errmsg(ptr noundef nonnull @.str.6, ptr noundef nonnull @.str.8, i32 noundef %40) #9
  tail call void @errfinish(ptr noundef nonnull @.str.3, i32 noundef 726, ptr noundef nonnull @__func__.textregexreplace_extended) #9
  unreachable

.thread:                                          ; preds = %23, %37, %36
  %.026 = phi i32 [ %30, %37 ], [ %30, %36 ], [ 1, %23 ]
  %.020 = phi i32 [ %40, %37 ], [ 1, %36 ], [ 1, %23 ]
  call fastcc void @parse_re_flags(ptr noundef %2, ptr noundef %25)
  %46 = load i16, ptr %15, align 2
  %47 = icmp slt i16 %46, 5
  %48 = getelementptr inbounds nuw i8, ptr %2, i64 4
  %49 = load i8, ptr %48, align 4, !range !7
  %50 = xor i8 %49, 1
  %not. = zext nneg i8 %50 to i32
  %.1 = select i1 %47, i32 %not., i32 %.020
  %51 = load i32, ptr %2, align 4
  %52 = getelementptr inbounds nuw i8, ptr %0, i64 24
  %53 = load i32, ptr %52, align 8
  %54 = add nsw i32 %.026, -1
  %55 = tail call ptr @replace_text_regexp(ptr noundef %6, ptr noundef %10, ptr noundef %14, i32 noundef %51, i32 noundef %53, i32 noundef %54, i32 noundef %.1) #9
  %56 = ptrtoint ptr %55 to i64
  call void @llvm.lifetime.end.p0(i64 8, ptr nonnull %2) #9
  ret i64 %56
}